; Function Attrs: mustprogress nounwind uwtable
define noundef ptr @_ZN8facebook5velox14getVectorSerdeEv() local_unnamed_addr #1 {
entry:
  %0 = load atomic i8, ptr @_ZGVZN8facebook5velox12_GLOBAL__N_118getVectorSerdeImplEvE5serde acquire, align 8
  %guard.uninitialized.i = icmp eq i8 %0, 0
  br i1 %guard.uninitialized.i, label %init.check.i, label %_ZN8facebook5velox12_GLOBAL__N_118getVectorSerdeImplEv.exit, !prof !6

init.check.i:                                     ; preds = %entry
  %1 = tail call i32 @__cxa_guard_acquire(ptr nonnull @_ZGVZN8facebook5velox12_GLOBAL__N_118getVectorSerdeImplEvE5serde) #21
  %tobool.not.i = icmp eq i32 %1, 0
  br i1 %tobool.not.i, label %_ZN8facebook5velox12_GLOBAL__N_118getVectorSerdeImplEv.exit, label %init.i

init.i:                                           ; preds = %init.check.i
  %2 = tail call i32 @__cxa_atexit(ptr nonnull @_ZNSt10unique_ptrIN8facebook5velox11VectorSerdeESt14default_deleteIS2_EED2Ev, ptr nonnull @_ZZN8facebook5velox12_GLOBAL__N_118getVectorSerdeImplEvE5serde, ptr nonnull @__dso_handle) #21
  tail call void @__cxa_guard_release(ptr nonnull @_ZGVZN8facebook5velox12_GLOBAL__N_118getVectorSerdeImplEvE5serde) #21
  br label %_ZN8facebook5velox12_GLOBAL__N_118getVectorSerdeImplEv.exit

_ZN8facebook5velox12_GLOBAL__N_118getVectorSerdeImplEv.exit: ; preds = %entry, %init.check.i, %init.i
  %3 = load ptr, ptr @_ZZN8facebook5velox12_GLOBAL__N_118getVectorSerdeImplEvE5serde, align 8
  %cmp.not = icmp eq ptr %3, null
  br i1 %cmp.not, label %if.then, label %if.end

if.then:                                          ; preds = %_ZN8facebook5velox12_GLOBAL__N_118getVectorSerdeImplEv.exit
  tail call void @llvm.trap()
  unreachable

if.end:                                           ; preds = %_ZN8facebook5velox12_GLOBAL__N_118getVectorSerdeImplEv.exit
  ret ptr %3
}